target datalayout = "e-m:e-p270:32:32-p271:32:32-p272:64:64-i64:64-i128:128-f80:128-n8:16:32:64-S128"
target triple = "x86_64-pc-linux-gnu"

; Function Attrs: inlinehint nounwind uwtable
define internal i32 @MakeARGB32(i32 noundef %0, i32 noundef %1, i32 noundef %2, i32 noundef %3) #2 {
  %5 = alloca i32, align 4
  %6 = alloca i32, align 4
  %7 = alloca i32, align 4
  %8 = alloca i32, align 4
  store i32 %0, ptr %5, align 4, !tbaa !8
  store i32 %1, ptr %6, align 4, !tbaa !8
  store i32 %2, ptr %7, align 4, !tbaa !8
  store i32 %3, ptr %8, align 4, !tbaa !8
  %9 = load i32, ptr %5, align 4, !tbaa !8
  %10 = shl i32 %9, 24
  %11 = load i32, ptr %6, align 4, !tbaa !8
  %12 = shl i32 %11, 16
  %13 = or i32 %10, %12
  %14 = load i32, ptr %7, align 4, !tbaa !8
  %15 = shl i32 %14, 8
  %16 = or i32 %13, %15
  %17 = load i32, ptr %8, align 4, !tbaa !8
  %18 = or i32 %16, %17
  ret i32 %18
}

; Function Attrs: nounwind uwtable
define internal void @PackRGB_C(ptr noalias noundef %0, ptr noalias noundef %1, ptr noalias noundef %2, i32 noundef %3, i32 noundef %4, ptr noalias noundef %5) #0 {
  %7 = alloca ptr, align 8
  %8 = alloca ptr, align 8
  %9 = alloca ptr, align 8
  %10 = alloca i32, align 4
  %11 = alloca i32, align 4
  %12 = alloca ptr, align 8
  %13 = alloca i32, align 4
  %14 = alloca i32, align 4
  store ptr %0, ptr %7, align 8, !tbaa !13
  store ptr %1, ptr %8, align 8, !tbaa !13
  store ptr %2, ptr %9, align 8, !tbaa !13
  store i32 %3, ptr %10, align 4, !tbaa !8
  store i32 %4, ptr %11, align 4, !tbaa !8
  store ptr %5, ptr %12, align 8, !tbaa !3
  call void @llvm.lifetime.start.p0(i64 4, ptr %13) #5
  call void @llvm.lifetime.start.p0(i64 4, ptr %14) #5
  store i32 0, ptr %14, align 4, !tbaa !8
  store i32 0, ptr %13, align 4, !tbaa !8
  br label %15

15:                                               ; preds = %46, %6
  %16 = load i32, ptr %13, align 4, !tbaa !8
  %17 = load i32, ptr %10, align 4, !tbaa !8
  %18 = icmp slt i32 %16, %17
  br i1 %18, label %19, label %49

19:                                               ; preds = %15
  %20 = load ptr, ptr %7, align 8, !tbaa !13
  %21 = load i32, ptr %14, align 4, !tbaa !8
  %22 = sext i32 %21 to i64
  %23 = getelementptr inbounds i8, ptr %20, i64 %22
  %24 = load i8, ptr %23, align 1, !tbaa !12
  %25 = zext i8 %24 to i32
  %26 = load ptr, ptr %8, align 8, !tbaa !13
  %27 = load i32, ptr %14, align 4, !tbaa !8
  %28 = sext i32 %27 to i64
  %29 = getelementptr inbounds i8, ptr %26, i64 %28
  %30 = load i8, ptr %29, align 1, !tbaa !12
  %31 = zext i8 %30 to i32
  %32 = load ptr, ptr %9, align 8, !tbaa !13
  %33 = load i32, ptr %14, align 4, !tbaa !8
  %34 = sext i32 %33 to i64
  %35 = getelementptr inbounds i8, ptr %32, i64 %34
  %36 = load i8, ptr %35, align 1, !tbaa !12
  %37 = zext i8 %36 to i32
  %38 = call i32 @MakeARGB32(i32 noundef 255, i32 noundef %25, i32 noundef %31, i32 noundef %37)
  %39 = load ptr, ptr %12, align 8, !tbaa !3
  %40 = load i32, ptr %13, align 4, !tbaa !8
  %41 = sext i32 %40 to i64
  %42 = getelementptr inbounds i32, ptr %39, i64 %41
  store i32 %38, ptr %42, align 4, !tbaa !8
  %43 = load i32, ptr %11, align 4, !tbaa !8
  %44 = load i32, ptr %14, align 4, !tbaa !8
  %45 = add nsw i32 %44, %43
  store i32 %45, ptr %14, align 4, !tbaa !8
  br label %46

46:                                               ; preds = %19
  %47 = load i32, ptr %13, align 4, !tbaa !8
  %48 = add nsw i32 %47, 1
  store i32 %48, ptr %13, align 4, !tbaa !8
  br label %15, !llvm.loop !19

49:                                               ; preds = %15
  call void @llvm.lifetime.end.p0(i64 4, ptr %14) #5
  call void @llvm.lifetime.end.p0(i64 4, ptr %13) #5
  ret void
}