; Function Attrs: nofree norecurse nosync nounwind memory(argmem: readwrite) uwtable
define internal void @PackRGB_C(ptr noalias noundef readonly captures(none) %0, ptr noalias noundef readonly captures(none) %1, ptr noalias noundef readonly captures(none) %2, i32 noundef %3, i32 noundef %4, ptr noalias noundef writeonly captures(none) %5) #0 {
  %7 = icmp sgt i32 %3, 0
  br i1 %7, label %.lr.ph.preheader, label %._crit_edge

.lr.ph.preheader:                                 ; preds = %6
  %8 = sext i32 %4 to i64
  %wide.trip.count = zext nneg i32 %3 to i64
  br label %.lr.ph

.lr.ph:                                           ; preds = %.lr.ph.preheader, %.lr.ph
  %indvars.iv15 = phi i64 [ 0, %.lr.ph.preheader ], [ %indvars.iv.next16, %.lr.ph ]
  %indvars.iv = phi i64 [ 0, %.lr.ph.preheader ], [ %indvars.iv.next, %.lr.ph ]
  %9 = getelementptr inbounds i8, ptr %0, i64 %indvars.iv
  %10 = load i8, ptr %9, align 1, !tbaa !9
  %11 = zext i8 %10 to i32
  %12 = getelementptr inbounds i8, ptr %1, i64 %indvars.iv
  %13 = load i8, ptr %12, align 1, !tbaa !9
  %14 = zext i8 %13 to i32
  %15 = getelementptr inbounds i8, ptr %2, i64 %indvars.iv
  %16 = load i8, ptr %15, align 1, !tbaa !9
  %17 = zext i8 %16 to i32
  %18 = shl nuw nsw i32 %11, 16
  %19 = shl nuw nsw i32 %14, 8
  %20 = or disjoint i32 %18, %19
  %21 = or disjoint i32 %20, %17
  %22 = or disjoint i32 %21, -16777216
  %23 = getelementptr inbounds nuw i32, ptr %5, i64 %indvars.iv15
  store i32 %22, ptr %23, align 4, !tbaa !3
  %indvars.iv.next = add nsw i64 %indvars.iv, %8
  %indvars.iv.next16 = add nuw nsw i64 %indvars.iv15, 1
  %exitcond.not = icmp eq i64 %indvars.iv.next16, %wide.trip.count
  br i1 %exitcond.not, label %._crit_edge, label %.lr.ph, !llvm.loop !17

._crit_edge:                                      ; preds = %.lr.ph, %6
  ret void
}